; Function Attrs: mustprogress nounwind uwtable
define dso_local void @_ZN4node4quic5StoreC2ESt10shared_ptrIN2v812BackingStoreEEmm(ptr nocapture noundef nonnull align 8 dereferenceable(40) %this, ptr nocapture noundef %store, i64 noundef %length, i64 noundef %offset) unnamed_addr #3 align 2 {
entry:
  store ptr getelementptr inbounds ({ [10 x ptr] }, ptr @_ZTVN4node4quic5StoreE, i64 0, i32 0, i64 2), ptr %this, align 8
  %store_ = getelementptr inbounds i8, ptr %this, i64 8
  %0 = load ptr, ptr %store, align 8
  store ptr %0, ptr %store_, align 8
  %_M_refcount.i.i = getelementptr inbounds i8, ptr %this, i64 16
  store ptr null, ptr %_M_refcount.i.i, align 8
  %_M_refcount4.i.i = getelementptr inbounds i8, ptr %store, i64 8
  %1 = load ptr, ptr %_M_refcount4.i.i, align 8
  store ptr null, ptr %_M_refcount4.i.i, align 8
  store ptr %1, ptr %_M_refcount.i.i, align 8
  store ptr null, ptr %store, align 8
  %length_ = getelementptr inbounds i8, ptr %this, i64 24
  store i64 %length, ptr %length_, align 8
  %offset_ = getelementptr inbounds i8, ptr %this, i64 32
  store i64 %offset, ptr %offset_, align 8
  %2 = load ptr, ptr %store_, align 8
  %call4 = tail call noundef i64 @_ZNK2v812BackingStore10ByteLengthEv(ptr noundef nonnull align 1 dereferenceable(1) %2) #16
  %cmp.not = icmp ult i64 %call4, %offset
  br i1 %cmp.not, label %do.body7, label %do.body9

do.body7:                                         ; preds = %entry
  tail call void @_ZN4node6AssertERKNS_13AssertionInfoE(ptr noundef nonnull align 8 dereferenceable(24) @_ZZN4node4quic5StoreC1ESt10shared_ptrIN2v812BackingStoreEEmmE4args) #16
  tail call void @abort() #17
  unreachable

do.body9:                                         ; preds = %entry
  %3 = load i64, ptr %length_, align 8
  %4 = load ptr, ptr %store_, align 8
  %call13 = tail call noundef i64 @_ZNK2v812BackingStore10ByteLengthEv(ptr noundef nonnull align 1 dereferenceable(1) %4) #16
  %5 = load i64, ptr %offset_, align 8
  %sub = sub i64 %call13, %5
  %cmp15.not = icmp ugt i64 %3, %sub
  br i1 %cmp15.not, label %do.body20, label %do.end23

do.body20:                                        ; preds = %do.body9
  tail call void @_ZN4node6AssertERKNS_13AssertionInfoE(ptr noundef nonnull align 8 dereferenceable(24) @_ZZN4node4quic5StoreC1ESt10shared_ptrIN2v812BackingStoreEEmmE4args_0) #16
  tail call void @abort() #17
  unreachable

do.end23:                                         ; preds = %do.body9
  ret void
}